target datalayout = "e-m:e-p270:32:32-p271:32:32-p272:64:64-i64:64-i128:128-f80:128-n8:16:32:64-S128"
target triple = "x86_64-pc-linux-gnu"

%struct._zend_llist = type { ptr, ptr, i64, i64, ptr, i8, ptr }
%struct.mime_header_entry = type { ptr, ptr }

; Function Attrs: alwaysinline nounwind uwtable
define internal ptr @zend_llist_get_next(ptr noundef %0) #3 {
  %2 = alloca ptr, align 8
  store ptr %0, ptr %2, align 8, !tbaa !113
  %3 = load ptr, ptr %2, align 8, !tbaa !113
  %4 = call ptr @zend_llist_get_next_ex(ptr noundef %3, ptr noundef null)
  ret ptr %4
}

; Function Attrs: alwaysinline nounwind uwtable
define internal ptr @zend_llist_get_first(ptr noundef %0) #3 {
  %2 = alloca ptr, align 8
  store ptr %0, ptr %2, align 8, !tbaa !113
  %3 = load ptr, ptr %2, align 8, !tbaa !113
  %4 = call ptr @zend_llist_get_first_ex(ptr noundef %3, ptr noundef null)
  ret ptr %4
}

; Function Attrs: nounwind uwtable
define internal ptr @php_mime_get_hdr_value(ptr noundef byval(%struct._zend_llist) align 8 %0, ptr noundef %1) #0 {
  %3 = alloca ptr, align 8
  %4 = alloca ptr, align 8
  %5 = alloca ptr, align 8
  %6 = alloca i32, align 4
  store ptr %1, ptr %4, align 8, !tbaa !41
  call void @llvm.lifetime.start.p0(i64 8, ptr %5) #15
  %7 = load ptr, ptr %4, align 8, !tbaa !41
  %8 = icmp eq ptr %7, null
  br i1 %8, label %9, label %10

9:                                                ; preds = %2
  store ptr null, ptr %3, align 8
  store i32 1, ptr %6, align 4
  br label %29

10:                                               ; preds = %2
  %11 = call ptr @zend_llist_get_first(ptr noundef %0)
  store ptr %11, ptr %5, align 8, !tbaa !42
  br label %12

12:                                               ; preds = %26, %10
  %13 = load ptr, ptr %5, align 8, !tbaa !42
  %14 = icmp ne ptr %13, null
  br i1 %14, label %15, label %28

15:                                               ; preds = %12
  %16 = load ptr, ptr %5, align 8, !tbaa !42
  %17 = getelementptr inbounds nuw %struct.mime_header_entry, ptr %16, i32 0, i32 0
  %18 = load ptr, ptr %17, align 8, !tbaa !110
  %19 = load ptr, ptr %4, align 8, !tbaa !41
  %20 = call i32 @strcasecmp(ptr noundef %18, ptr noundef %19) #16
  %21 = icmp ne i32 %20, 0
  br i1 %21, label %26, label %22

22:                                               ; preds = %15
  %23 = load ptr, ptr %5, align 8, !tbaa !42
  %24 = getelementptr inbounds nuw %struct.mime_header_entry, ptr %23, i32 0, i32 1
  %25 = load ptr, ptr %24, align 8, !tbaa !112
  store ptr %25, ptr %3, align 8
  store i32 1, ptr %6, align 4
  br label %29

26:                                               ; preds = %15
  %27 = call ptr @zend_llist_get_next(ptr noundef %0)
  store ptr %27, ptr %5, align 8, !tbaa !42
  br label %12

28:                                               ; preds = %12
  store ptr null, ptr %3, align 8
  store i32 1, ptr %6, align 4
  br label %29

29:                                               ; preds = %28, %22, %9
  call void @llvm.lifetime.end.p0(i64 8, ptr %5) #15
  %30 = load ptr, ptr %3, align 8
  ret ptr %30
}