; Function Attrs: nounwind uwtable
define internal fastcc ptr @php_mime_get_hdr_value(ptr noundef byval(%struct._zend_llist) align 8 %0, ptr noundef readonly captures(address_is_null) %1) unnamed_addr #0 {
  %3 = icmp eq ptr %1, null
  br i1 %3, label %.loopexit, label %4

4:                                                ; preds = %2
  %5 = call ptr @zend_llist_get_first_ex(ptr noundef nonnull %0, ptr noundef null) #21
  %.not10 = icmp eq ptr %5, null
  br i1 %.not10, label %.loopexit, label %.lr.ph

.lr.ph:                                           ; preds = %4, %11
  %.011 = phi ptr [ %12, %11 ], [ %5, %4 ]
  %6 = load ptr, ptr %.011, align 8, !tbaa !74
  %7 = call i32 @strcasecmp(ptr noundef %6, ptr noundef nonnull %1) #22
  %.not8 = icmp eq i32 %7, 0
  br i1 %.not8, label %8, label %11

8:                                                ; preds = %.lr.ph
  %9 = getelementptr inbounds nuw i8, ptr %.011, i64 8
  %10 = load ptr, ptr %9, align 8, !tbaa !76
  br label %.loopexit

11:                                               ; preds = %.lr.ph
  %12 = call ptr @zend_llist_get_next_ex(ptr noundef nonnull %0, ptr noundef null) #21
  %.not = icmp eq ptr %12, null
  br i1 %.not, label %.loopexit, label %.lr.ph

.loopexit:                                        ; preds = %11, %4, %2, %8
  %.06 = phi ptr [ %10, %8 ], [ null, %2 ], [ null, %4 ], [ null, %11 ]
  ret ptr %.06
}